; Function Attrs: mustprogress uwtable
define hidden void @_ZNK4cvc58internal3smt12Preprocessor18getLearnedLiteralsEv(ptr noalias sret(%"class.std::vector.380") align 8 %agg.result, ptr nocapture noundef nonnull readonly align 8 dereferenceable(712) %this) local_unnamed_addr #3 align 2 {
entry:
  %d_ppContext = getelementptr inbounds i8, ptr %this, i64 600
  %0 = load ptr, ptr %d_ppContext, align 8
  %cmp.i.not.i = icmp eq ptr %0, null
  br i1 %cmp.i.not.i, label %if.then, label %if.end

if.then:                                          ; preds = %entry
  tail call void @llvm.memset.p0.i64(ptr noundef nonnull align 8 dereferenceable(24) %agg.result, i8 0, i64 24, i1 false)
  br label %return

if.end:                                           ; preds = %entry
  tail call void @_ZNK4cvc58internal13preprocessing24PreprocessingPassContext18getLearnedLiteralsEv(ptr sret(%"class.std::vector.380") align 8 %agg.result, ptr noundef nonnull align 8 dereferenceable(168) %0)
  br label %return

return:                                           ; preds = %if.end, %if.then
  ret void
}